BL51 BANKED LINKER/LOCATER V6.22.4.0                                                    05/15/2023  01:16:12  PAGE 1


BL51 BANKED LINKER/LOCATER V6.22.4.0, INVOKED BY:
D:\KEIL_V4\C51\BIN\BL51.EXE .\Objects\STARTUP.obj, .\Objects\main.obj, .\Objects\delay.obj, .\Objects\nixie_tube.obj, .\
>> Objects\LCD1602.obj, .\Objects\matrix.obj, .\Objects\timer.obj, .\Objects\uart.obj, .\Objects\dianzhen.obj, .\Objects
>> \beep.obj, .\Objects\key.obj, .\Objects\at24c02.obj, .\Objects\pwm.obj, .\Objects\remote.obj, .\Objects\intrrupt.obj,
>>  .\Objects\demo.obj TO .\Objects\Test PRINT (.\Listings\Test.m51) RAMSIZE (256) DISABLEWARNING (16)


MEMORY MODEL: COMPACT WITH FLOATING POINT ARITHMETIC


INPUT MODULES INCLUDED:
  .\Objects\STARTUP.obj (?C_STARTUP)
  .\Objects\main.obj (MAIN)
  .\Objects\delay.obj (DELAY)
  .\Objects\nixie_tube.obj (NIXIE_TUBE)
  .\Objects\LCD1602.obj (LCD1602)
  .\Objects\matrix.obj (MATRIX)
  .\Objects\timer.obj (TIMER)
  .\Objects\uart.obj (UART)
  .\Objects\dianzhen.obj (DIANZHEN)
  .\Objects\beep.obj (BEEP)
  .\Objects\key.obj (KEY)
  .\Objects\at24c02.obj (AT24C02)
  .\Objects\pwm.obj (PWM)
  .\Objects\remote.obj (REMOTE)
  .\Objects\intrrupt.obj (INTRRUPT)
  .\Objects\demo.obj (DEMO)
  D:\KEIL_V4\C51\LIB\C51FPC.LIB (?C?FPMUL)
  D:\KEIL_V4\C51\LIB\C51FPC.LIB (?C?CASTF)
  D:\KEIL_V4\C51\LIB\C51FPC.LIB (?C?FPGETOPN)
  D:\KEIL_V4\C51\LIB\C51C.LIB (?C_INIT)
  D:\KEIL_V4\C51\LIB\C51C.LIB (?C?CLDOPTR)
  D:\KEIL_V4\C51\LIB\C51C.LIB (?C?IMUL)
  D:\KEIL_V4\C51\LIB\C51C.LIB (?C?UIDIV)
  D:\KEIL_V4\C51\LIB\C51C.LIB (?C?SIDIV)
  D:\KEIL_V4\C51\LIB\C51C.LIB (?C?LNEG)
  D:\KEIL_V4\C51\LIB\C51C.LIB (?C?LLDIPDATA)
  D:\KEIL_V4\C51\LIB\C51C.LIB (?C?LSTPDATA)


LINK MAP OF MODULE:  .\Objects\Test (?C_STARTUP)


            TYPE    BASE      LENGTH    RELOCATION   SEGMENT NAME
            -----------------------------------------------------

            * * * * * * *   D A T A   M E M O R Y   * * * * * * *
            REG     0000H     0008H     ABSOLUTE     "REG BANK 0"
            IDATA   0008H     0001H     UNIT         ?STACK

            * * * * * * *  X D A T A   M E M O R Y  * * * * * * *
            XDATA   0000H     0008H     INPAGE       ?PD?_DELAY?DELAY
            XDATA   0008H     0011H     INPAGE       ?PD?NIXIE_TUBE
            XDATA   0019H     0003H     INPAGE       ?PD?_LCD_SHOWSTRING?LCD1602
            XDATA   001CH     0005H     INPAGE       ?PD?_LCD_SHOWNUM?LCD1602
            XDATA   0021H     0007H     INPAGE       ?PD?_LCD_SHOWSIGNEDNUM?LCD1602
            XDATA   0028H     0005H     INPAGE       ?PD?_LCD_SHOWBINNUM?LCD1602
            XDATA   002DH     0001H     INPAGE       ?PD?MATRIXKEY?MATRIX
BL51 BANKED LINKER/LOCATER V6.22.4.0                                                  05/15/2023  01:16:12  PAGE 2


            XDATA   002EH     0005H     INPAGE       ?PD?MATRIX
            XDATA   0033H     0006H     INPAGE       ?PD?TIMER
            XDATA   0039H     0003H     INPAGE       ?PD?DIANZHEN_TEST?DIANZHEN
            XDATA   003CH     0020H     INPAGE       ?PD?DIANZHEN
            XDATA   005CH     0001H     INPAGE       ?PD?GET_KEY?KEY
            XDATA   005DH     0004H     INPAGE       ?PD?PWM
            XDATA   0061H     0011H     INPAGE       ?PD?DEMO
            XDATA   0072H     0009H     INPAGE       _PDATA_GROUP_

            * * * * * * *   C O D E   M E M O R Y   * * * * * * *
            CODE    0000H     0003H     ABSOLUTE     
            CODE    0003H     0003H     ABSOLUTE     
            CODE    0006H     0005H     UNIT         ?PR?UART_TEST?UART
            CODE    000BH     0003H     ABSOLUTE     
            CODE    000EH     0015H     UNIT         ?PR?_DELAY_INT?DELAY
            CODE    0023H     0003H     ABSOLUTE     
            CODE    0026H     028BH     UNIT         ?C?LIB_CODE
            CODE    02B1H     022BH     UNIT         ?PR?MATRIXKEY?MATRIX
            CODE    04DCH     0163H     UNIT         ?PR?INT0_ROUTINE?DEMO
            CODE    063FH     00D1H     UNIT         ?PR?MATRIX_TEST?MATRIX
            CODE    0710H     008CH     UNIT         ?C_C51STARTUP
            CODE    079CH     008BH     UNIT         ?PR?GET_KEY?KEY
            CODE    0827H     007DH     UNIT         ?PR?_NIXIE_LOCATE?NIXIE_TUBE
            CODE    08A4H     0061H     UNIT         ?C_INITSEG
            CODE    0905H     0051H     UNIT         ?PR?NIXIE_TUBE?NIXIE_TUBE
            CODE    0956H     004BH     UNIT         ?PR?DIANJI?PWM
            CODE    09A1H     0047H     UNIT         ?PR?DIANZHEN_TEST?DIANZHEN
            CODE    09E8H     0041H     UNIT         ?PR?DEMO_TEST?DEMO
            CODE    0A29H     0040H     UNIT         ?PR?_LCD_POW?LCD1602
            CODE    0A69H     0040H     UNIT         ?PR?_LCD_SHOWSIGNEDNUM?LCD1602
            CODE    0AA9H     003EH     UNIT         ?PR?TIMER0_ROUTINE?PWM
            CODE    0AE7H     003BH     UNIT         ?PR?_LCD_SHOWHEXNUM?LCD1602
            CODE    0B22H     003AH     UNIT         ?PR?_LCD_SHOWBINNUM?LCD1602
            CODE    0B5CH     0033H     UNIT         ?PR?_DELAY?DELAY
            CODE    0B8FH     002EH     UNIT         ?PR?__74HC595_WRITE?DIANZHEN
            CODE    0BBDH     002BH     UNIT         ?PR?_LCD_SHOWSTRING?LCD1602
            CODE    0BE8H     0026H     UNIT         ?PR?_MATRIXLED_COLUMN?DIANZHEN
            CODE    0C0EH     0026H     UNIT         ?PR?BREATH?PWM
            CODE    0C34H     0023H     UNIT         ?PR?_LCD_WRITEDATA?LCD1602
            CODE    0C57H     0021H     UNIT         ?PR?_DELAY0?PWM
            CODE    0C78H     001DH     UNIT         ?PR?_LCD_SETCURSOR?LCD1602
            CODE    0C95H     001BH     UNIT         ?PR?UART_INIT?UART
            CODE    0CB0H     001AH     UNIT         ?PR?_LCD_SHOWNUM?LCD1602
            CODE    0CCAH     0019H     UNIT         ?PR?UART_ROUTINE?UART
            CODE    0CE3H     0017H     UNIT         ?PR?TIMER0_INIT?TIMER
            CODE    0CFAH     0017H     UNIT         ?PR?TIMER_INIT?PWM
            CODE    0D11H     0015H     UNIT         ?PR?CLEAR_PWD?MATRIX
            CODE    0D26H     0014H     UNIT         ?PR?LCD_INIT?LCD1602
            CODE    0D3AH     0012H     UNIT         ?CO?MATRIX
            CODE    0D4CH     0010H     UNIT         ?PR?TIMER_DEMO_INIT?DEMO
            CODE    0D5CH     000FH     UNIT         ?PR?LCD_DELAY?LCD1602
            CODE    0D6BH     000DH     UNIT         ?PR?IR_GETDATAFLAG?DEMO
            CODE    0D78H     000DH     UNIT         ?PR?IR_GETREPEATFLAG?DEMO
            CODE    0D85H     000CH     UNIT         ?PR?_TIMER_SETCNT?DEMO
            CODE    0D91H     000BH     UNIT         ?PR?INT0_INIT?INTRRUPT
            CODE    0D9CH     000AH     UNIT         ?PR?_LCD_WRITECOMMAND?LCD1602
            CODE    0DA6H     0009H     UNIT         ?PR?TIMER_GETCNT?DEMO
BL51 BANKED LINKER/LOCATER V6.22.4.0                                                  05/15/2023  01:16:12  PAGE 3


            CODE    0DAFH     0008H     UNIT         ?PR?_LCD_SHOWCHAR?LCD1602
            CODE    0DB7H     0008H     UNIT         ?PR?_UART_SEND?UART
            CODE    0DBFH     0006H     UNIT         ?PR?_TIMER_RUN?DEMO
            CODE    0DC5H     0005H     UNIT         ?PR?IR_GETADDRESS?DEMO
            CODE    0DCAH     0005H     UNIT         ?PR?IR_GETCOMMAND?DEMO
            CODE    0DCFH     0003H     UNIT         ?PR?MAIN?MAIN
            CODE    0DD2H     0003H     UNIT         ?PR?PWM_TEST?PWM



OVERLAY MAP OF MODULE:   .\Objects\Test (?C_STARTUP)


SEGMENT                                  PDATA_GROUP
  +--> CALLED SEGMENT                  START    LENGTH
------------------------------------------------------
?C_C51STARTUP                          -----    -----
  +--> ?PR?MAIN?MAIN
  +--> ?C_INITSEG

?PR?MAIN?MAIN                          -----    -----
  +--> ?PR?DEMO_TEST?DEMO

?PR?DEMO_TEST?DEMO                     -----    -----
  +--> ?PR?LCD_INIT?LCD1602
  +--> ?PR?TIMER_DEMO_INIT?DEMO
  +--> ?PR?INT0_INIT?INTRRUPT
  +--> ?PR?IR_GETDATAFLAG?DEMO
  +--> ?PR?IR_GETADDRESS?DEMO
  +--> ?PR?IR_GETCOMMAND?DEMO
  +--> ?PR?_LCD_SHOWHEXNUM?LCD1602

?PR?LCD_INIT?LCD1602                   -----    -----
  +--> ?PR?_LCD_WRITECOMMAND?LCD1602

?PR?_LCD_WRITECOMMAND?LCD1602          -----    -----
  +--> ?PR?LCD_DELAY?LCD1602

?PR?_LCD_SHOWHEXNUM?LCD1602            0072H    0005H
  +--> ?PR?_LCD_SETCURSOR?LCD1602
  +--> ?PR?_LCD_POW?LCD1602
  +--> ?PR?_LCD_WRITEDATA?LCD1602

?PR?_LCD_SETCURSOR?LCD1602             -----    -----
  +--> ?PR?_LCD_WRITECOMMAND?LCD1602

?PR?_LCD_POW?LCD1602                   0077H    0004H

?PR?_LCD_WRITEDATA?LCD1602             -----    -----
  +--> ?PR?LCD_DELAY?LCD1602

*** NEW ROOT ***************************************************

?PR?UART_ROUTINE?UART                  -----    -----
  +--> ?PR?_UART_SEND?UART

*** NEW ROOT ***************************************************
BL51 BANKED LINKER/LOCATER V6.22.4.0                                                  05/15/2023  01:16:12  PAGE 4



?PR?INT0_ROUTINE?DEMO                  -----    -----
  +--> ?PR?_TIMER_SETCNT?DEMO
  +--> ?PR?_TIMER_RUN?DEMO
  +--> ?PR?TIMER_GETCNT?DEMO



SYMBOL TABLE OF MODULE:  .\Objects\Test (?C_STARTUP)

  VALUE           TYPE          NAME
  ----------------------------------

  -------         MODULE        ?C_STARTUP
  C:0710H         SEGMENT       ?C_C51STARTUP
  I:0008H         SEGMENT       ?STACK
  C:0000H         PUBLIC        ?C_STARTUP
  D:00E0H         SYMBOL        ACC
  D:00F0H         SYMBOL        B
  D:0083H         SYMBOL        DPH
  D:0082H         SYMBOL        DPL
  N:0000H         SYMBOL        IBPSTACK
  N:0100H         SYMBOL        IBPSTACKTOP
  N:0080H         SYMBOL        IDATALEN
  C:0713H         SYMBOL        IDATALOOP
  N:0000H         SYMBOL        PBPSTACK
  N:0100H         SYMBOL        PBPSTACKTOP
  N:0000H         SYMBOL        PDATALEN
  N:0000H         SYMBOL        PDATASTART
  N:0000H         SYMBOL        PPAGE
  N:0000H         SYMBOL        PPAGEENABLE
  D:00A0H         SYMBOL        PPAGE_SFR
  D:0081H         SYMBOL        SP
  C:0710H         SYMBOL        STARTUP1
  N:0000H         SYMBOL        XBPSTACK
  N:0000H         SYMBOL        XBPSTACKTOP
  N:0000H         SYMBOL        XDATALEN
  N:0000H         SYMBOL        XDATASTART
  C:0000H         LINE#         126
  C:0710H         LINE#         133
  C:0712H         LINE#         134
  C:0713H         LINE#         135
  C:0714H         LINE#         136
  C:0716H         LINE#         185
  C:0719H         LINE#         196
  -------         ENDMOD        ?C_STARTUP

  -------         MODULE        MAIN
  C:0000H         SYMBOL        _ICE_DUMMY_
  C:0DCFH         PUBLIC        main
  -------         PROC          MAIN
  C:0DCFH         LINE#         25
  C:0DCFH         LINE#         26
  C:0DCFH         LINE#         37
  -------         ENDPROC       MAIN
  -------         ENDMOD        MAIN

BL51 BANKED LINKER/LOCATER V6.22.4.0                                                  05/15/2023  01:16:12  PAGE 5


  -------         MODULE        DELAY
  C:0000H         SYMBOL        _ICE_DUMMY_
  C:0B5CH         PUBLIC        _delay
  C:000EH         PUBLIC        _delay_int
  -------         PROC          _DELAY_INT
  D:0006H         SYMBOL        xms
  -------         DO            
  D:0005H         SYMBOL        i
  D:0004H         SYMBOL        j
  -------         ENDDO         
  C:000EH         LINE#         3
  C:000EH         LINE#         4
  C:000EH         LINE#         6
  C:0018H         LINE#         7
  C:0018H         LINE#         8
  C:001AH         LINE#         9
  C:001CH         LINE#         11
  C:001CH         LINE#         12
  C:001EH         LINE#         13
  C:0020H         LINE#         14
  C:0022H         LINE#         15
  -------         ENDPROC       _DELAY_INT
  -------         PROC          _DELAY
  X:0000H         SYMBOL        s
  -------         DO            
  X:0004H         SYMBOL        k
  -------         ENDDO         
  C:0B5CH         LINE#         18
  C:0B61H         LINE#         19
  C:0B61H         LINE#         20
  C:0B81H         LINE#         21
  C:0B8EH         LINE#         22
  -------         ENDPROC       _DELAY
  -------         ENDMOD        DELAY

  -------         MODULE        NIXIE_TUBE
  C:0000H         SYMBOL        _ICE_DUMMY_
  D:0080H         PUBLIC        P0
  X:0008H         PUBLIC        table
  B:00A0H.2       PUBLIC        P2_2
  B:00A0H.3       PUBLIC        P2_3
  B:00A0H.4       PUBLIC        P2_4
  C:0905H         PUBLIC        nixie_tube
  C:082BH         PUBLIC        _nixie_locate
  -------         PROC          L?0020
  -------         ENDPROC       L?0020
  -------         PROC          _NIXIE_LOCATE
  D:0002H         SYMBOL        locate
  D:0004H         SYMBOL        number
  C:082BH         LINE#         6
  C:082FH         LINE#         7
  C:082FH         LINE#         8
  C:0846H         LINE#         9
  C:0884H         LINE#         10
  C:088EH         LINE#         11
  C:0895H         LINE#         12
  C:08A0H         LINE#         13
BL51 BANKED LINKER/LOCATER V6.22.4.0                                                  05/15/2023  01:16:12  PAGE 6


  C:08A3H         LINE#         14
  -------         ENDPROC       _NIXIE_LOCATE
  -------         PROC          NIXIE_TUBE
  C:0905H         LINE#         18
  C:0905H         LINE#         19
  C:0905H         LINE#         20
  C:0905H         LINE#         21
  C:0905H         LINE#         22
  C:090FH         LINE#         24
  C:0916H         LINE#         25
  C:091DH         LINE#         26
  C:0928H         LINE#         27
  C:0933H         LINE#         28
  C:093EH         LINE#         29
  C:0949H         LINE#         30
  C:0954H         LINE#         31
  -------         ENDPROC       NIXIE_TUBE
  -------         ENDMOD        NIXIE_TUBE

  -------         MODULE        LCD1602
  C:0000H         SYMBOL        _ICE_DUMMY_
  D:0080H         PUBLIC        P0
  D:00A0H         PUBLIC        P2
  C:0D9CH         PUBLIC        _LCD_WriteCommand
  C:0CB0H         PUBLIC        _LCD_ShowNum
  C:0B22H         PUBLIC        _LCD_ShowBinNum
  C:0D62H         PUBLIC        LCD_Delay
  C:0AE7H         PUBLIC        _LCD_ShowHexNum
  C:0C4DH         PUBLIC        _LCD_WriteData
  B:00A0H.7       PUBLIC        LCD_EN
  C:0D26H         PUBLIC        LCD_Init
  C:0BBDH         PUBLIC        _LCD_ShowString
  C:0DAFH         PUBLIC        _LCD_ShowChar
  B:00A0H.6       PUBLIC        LCD_RS
  B:00A0H.5       PUBLIC        LCD_RW
  C:0C7DH         PUBLIC        _LCD_SetCursor
  C:0A69H         PUBLIC        _LCD_ShowSignedNum
  C:0A35H         PUBLIC        _LCD_Pow
  -------         PROC          L?0050
  -------         ENDPROC       L?0050
  -------         PROC          LCD_DELAY
  -------         DO            
  D:0007H         SYMBOL        i
  D:0006H         SYMBOL        j
  -------         ENDDO         
  C:0D62H         LINE#         15
  C:0D62H         LINE#         16
  C:0D62H         LINE#         19
  C:0D64H         LINE#         20
  C:0D66H         LINE#         22
  C:0D66H         LINE#         23
  C:0D68H         LINE#         24
  C:0D6AH         LINE#         25
  -------         ENDPROC       LCD_DELAY
  -------         PROC          _LCD_WRITECOMMAND
  D:0007H         SYMBOL        Command
  C:0D9CH         LINE#         32
BL51 BANKED LINKER/LOCATER V6.22.4.0                                                  05/15/2023  01:16:12  PAGE 7


  C:0D9CH         LINE#         33
  C:0D9CH         LINE#         34
  C:0D9EH         LINE#         35
  C:0D9EH         LINE#         36
  C:0D9EH         LINE#         37
  C:0D9EH         LINE#         38
  C:0DA1H         LINE#         39
  C:0DA3H         LINE#         40
  -------         ENDPROC       _LCD_WRITECOMMAND
  -------         PROC          L?0047
  -------         ENDPROC       L?0047
  -------         PROC          _LCD_WRITEDATA
  D:0007H         SYMBOL        Data
  C:0C4DH         LINE#         48
  C:0C4DH         LINE#         49
  C:0C4DH         LINE#         50
  C:0C4FH         LINE#         51
  C:0C4FH         LINE#         52
  C:0C4FH         LINE#         53
  C:0C4FH         LINE#         54
  C:0C52H         LINE#         55
  C:0C54H         LINE#         56
  -------         ENDPROC       _LCD_WRITEDATA
  C:0C78H         SYMBOL        L?0049
  -------         PROC          L?0048
  -------         ENDPROC       L?0048
  C:0C78H         SYMBOL        L?0049
  -------         PROC          _LCD_SETCURSOR
  D:0006H         SYMBOL        Line
  D:0005H         SYMBOL        Column
  C:0C7DH         LINE#         65
  C:0C7FH         LINE#         66
  C:0C7FH         LINE#         67
  C:0C83H         LINE#         68
  C:0C83H         LINE#         69
  C:0C85H         LINE#         70
  C:0C87H         LINE#         71
  C:0C8BH         LINE#         72
  C:0C8BH         LINE#         73
  C:0C94H         LINE#         74
  C:0C94H         LINE#         75
  -------         ENDPROC       _LCD_SETCURSOR
  -------         PROC          LCD_INIT
  C:0D26H         LINE#         82
  C:0D26H         LINE#         83
  C:0D26H         LINE#         84
  C:0D2BH         LINE#         85
  C:0D30H         LINE#         86
  C:0D35H         LINE#         87
  -------         ENDPROC       LCD_INIT
  -------         PROC          _LCD_SHOWCHAR
  D:0007H         SYMBOL        Line
  D:0005H         SYMBOL        Column
  D:0003H         SYMBOL        Char
  C:0DAFH         LINE#         97
  C:0DAFH         LINE#         98
  C:0DAFH         LINE#         99
BL51 BANKED LINKER/LOCATER V6.22.4.0                                                  05/15/2023  01:16:12  PAGE 8


  C:0DB2H         LINE#         100
  -------         ENDPROC       _LCD_SHOWCHAR
  -------         PROC          _LCD_SHOWSTRING
  D:0007H         SYMBOL        Line
  D:0005H         SYMBOL        Column
  X:0019H         SYMBOL        String
  -------         DO            
  D:0005H         SYMBOL        i
  -------         ENDDO         
  C:0BBDH         LINE#         110
  C:0BC7H         LINE#         111
  C:0BC7H         LINE#         113
  C:0BCAH         LINE#         114
  C:0BE1H         LINE#         115
  C:0BE1H         LINE#         116
  C:0BE4H         LINE#         117
  C:0BE7H         LINE#         118
  -------         ENDPROC       _LCD_SHOWSTRING
  C:0A2BH         SYMBOL        L?0046
  -------         PROC          L?0045
  -------         ENDPROC       L?0045
  C:0A2BH         SYMBOL        L?0046
  -------         PROC          _LCD_POW
  X:0077H         SYMBOL        X
  X:0079H         SYMBOL        Y
  -------         DO            
  D:0003H         SYMBOL        i
  D:0006H         SYMBOL        Result
  -------         ENDDO         
  C:0A35H         LINE#         123
  C:0A42H         LINE#         124
  C:0A42H         LINE#         126
  C:0A46H         LINE#         127
  C:0A5BH         LINE#         128
  C:0A5BH         LINE#         129
  C:0A65H         LINE#         130
  C:0A68H         LINE#         131
  C:0A68H         LINE#         132
  -------         ENDPROC       _LCD_POW
  -------         PROC          _LCD_SHOWNUM
  D:0007H         SYMBOL        Line
  D:0005H         SYMBOL        Column
  X:001EH         SYMBOL        Number
  X:0020H         SYMBOL        Length
  -------         DO            
  D:0002H         SYMBOL        i
  -------         ENDDO         
  C:0CB0H         LINE#         142
  C:0CB2H         LINE#         143
  C:0CB2H         LINE#         145
  C:0CB5H         LINE#         146
  C:0CBEH         LINE#         147
  C:0CBEH         LINE#         148
  C:0CC6H         LINE#         149
  C:0CC9H         LINE#         150
  -------         ENDPROC       _LCD_SHOWNUM
  -------         PROC          _LCD_SHOWSIGNEDNUM
BL51 BANKED LINKER/LOCATER V6.22.4.0                                                  05/15/2023  01:16:12  PAGE 9


  D:0007H         SYMBOL        Line
  D:0005H         SYMBOL        Column
  D:0002H         SYMBOL        Number
  X:0025H         SYMBOL        Length
  -------         DO            
  D:0002H         SYMBOL        i
  X:0026H         SYMBOL        Number1
  -------         ENDDO         
  C:0A69H         LINE#         160
  C:0A69H         LINE#         161
  C:0A69H         LINE#         164
  C:0A6CH         LINE#         165
  C:0A74H         LINE#         166
  C:0A74H         LINE#         167
  C:0A79H         LINE#         168
  C:0A80H         LINE#         169
  C:0A82H         LINE#         171
  C:0A82H         LINE#         172
  C:0A87H         LINE#         173
  C:0A93H         LINE#         174
  C:0A93H         LINE#         175
  C:0A9DH         LINE#         176
  C:0A9DH         LINE#         177
  C:0AA5H         LINE#         178
  C:0AA8H         LINE#         179
  -------         ENDPROC       _LCD_SHOWSIGNEDNUM
  -------         PROC          _LCD_SHOWHEXNUM
  D:0007H         SYMBOL        Line
  D:0005H         SYMBOL        Column
  X:0074H         SYMBOL        Number
  X:0076H         SYMBOL        Length
  -------         DO            
  D:0002H         SYMBOL        i
  D:0006H         SYMBOL        SingleNumber
  -------         ENDDO         
  C:0AE7H         LINE#         189
  C:0AE9H         LINE#         190
  C:0AE9H         LINE#         192
  C:0AECH         LINE#         193
  C:0AF5H         LINE#         194
  C:0AF5H         LINE#         195
  C:0B0EH         LINE#         196
  C:0B14H         LINE#         197
  C:0B14H         LINE#         198
  C:0B16H         LINE#         199
  C:0B18H         LINE#         201
  C:0B18H         LINE#         202
  C:0B1EH         LINE#         203
  C:0B1EH         LINE#         204
  C:0B21H         LINE#         205
  -------         ENDPROC       _LCD_SHOWHEXNUM
  -------         PROC          _LCD_SHOWBINNUM
  D:0007H         SYMBOL        Line
  D:0005H         SYMBOL        Column
  X:002AH         SYMBOL        Number
  X:002CH         SYMBOL        Length
  -------         DO            
BL51 BANKED LINKER/LOCATER V6.22.4.0                                                  05/15/2023  01:16:12  PAGE 10


  D:0002H         SYMBOL        i
  -------         ENDDO         
  C:0B22H         LINE#         215
  C:0B24H         LINE#         216
  C:0B24H         LINE#         218
  C:0B27H         LINE#         219
  C:0B30H         LINE#         220
  C:0B30H         LINE#         221
  C:0B58H         LINE#         222
  C:0B5BH         LINE#         223
  -------         ENDPROC       _LCD_SHOWBINNUM
  -------         ENDMOD        LCD1602

  -------         MODULE        MATRIX
  C:0000H         SYMBOL        _ICE_DUMMY_
  D:0090H         PUBLIC        P1
  B:0090H.0       PUBLIC        P1_0
  B:0090H.1       PUBLIC        P1_1
  B:0090H.2       PUBLIC        P1_2
  B:0090H.3       PUBLIC        P1_3
  B:0090H.4       PUBLIC        P1_4
  B:0090H.5       PUBLIC        P1_5
  B:0090H.6       PUBLIC        P1_6
  B:0090H.7       PUBLIC        P1_7
  C:02B1H         PUBLIC        MatrixKey
  X:002EH         PUBLIC        input
  C:0D11H         PUBLIC        clear_pwd
  C:063FH         PUBLIC        matrix_test
  X:0030H         PUBLIC        password
  X:0032H         PUBLIC        keyNum
  -------         PROC          MATRIXKEY
  -------         DO            
  X:002DH         SYMBOL        keyNum
  -------         ENDDO         
  C:02B1H         LINE#         5
  C:02B1H         LINE#         6
  C:02B1H         LINE#         7
  C:02B5H         LINE#         9
  C:02B8H         LINE#         10
  C:02BAH         LINE#         11
  C:02D9H         LINE#         12
  C:02FAH         LINE#         13
  C:031BH         LINE#         14
  C:033CH         LINE#         16
  C:033FH         LINE#         17
  C:0341H         LINE#         18
  C:0362H         LINE#         19
  C:0383H         LINE#         20
  C:03A4H         LINE#         21
  C:03C5H         LINE#         23
  C:03C8H         LINE#         24
  C:03CAH         LINE#         25
  C:03EBH         LINE#         26
  C:040CH         LINE#         27
  C:042DH         LINE#         28
  C:044EH         LINE#         30
  C:0451H         LINE#         31
BL51 BANKED LINKER/LOCATER V6.22.4.0                                                  05/15/2023  01:16:12  PAGE 11


  C:0453H         LINE#         32
  C:0474H         LINE#         33
  C:0495H         LINE#         34
  C:04B6H         LINE#         35
  C:04D7H         LINE#         37
  C:04DBH         LINE#         38
  -------         ENDPROC       MATRIXKEY
  -------         PROC          CLEAR_PWD
  C:0D11H         LINE#         45
  C:0D11H         LINE#         46
  C:0D11H         LINE#         47
  C:0D17H         LINE#         48
  -------         ENDPROC       CLEAR_PWD
  -------         PROC          MATRIX_TEST
  C:063FH         LINE#         52
  C:063FH         LINE#         53
  C:063FH         LINE#         54
  C:064CH         LINE#         55
  C:064CH         LINE#         56
  C:064CH         LINE#         57
  C:0653H         LINE#         59
  C:065AH         LINE#         60
  C:065AH         LINE#         61
  C:066CH         LINE#         62
  C:0672H         LINE#         63
  C:0672H         LINE#         64
  C:0674H         LINE#         66
  C:0674H         LINE#         67
  C:0681H         LINE#         68
  C:0684H         LINE#         69
  C:0684H         LINE#         70
  C:0684H         LINE#         72
  C:068AH         LINE#         73
  C:068AH         LINE#         74
  C:068DH         LINE#         75
  C:069AH         LINE#         76
  C:069AH         LINE#         78
  C:06A5H         LINE#         79
  C:06A5H         LINE#         80
  C:06AFH         LINE#         81
  C:06C4H         LINE#         82
  C:06CEH         LINE#         83
  C:06DDH         LINE#         84
  C:06DDH         LINE#         85
  C:06E9H         LINE#         86
  C:06ECH         LINE#         88
  C:06ECH         LINE#         89
  C:06FFH         LINE#         90
  C:070DH         LINE#         91
  C:070DH         LINE#         92
  C:070DH         LINE#         93
  -------         ENDPROC       MATRIX_TEST
  -------         ENDMOD        MATRIX

  -------         MODULE        TIMER
  C:0000H         SYMBOL        _ICE_DUMMY_
  B:00A8H.7       PUBLIC        EA
BL51 BANKED LINKER/LOCATER V6.22.4.0                                                  05/15/2023  01:16:12  PAGE 12


  D:0089H         PUBLIC        TMOD
  X:0033H         PUBLIC        sec
  X:0035H         PUBLIC        hour
  X:0037H         PUBLIC        min
  B:00A8H.1       PUBLIC        ET0
  B:0088H.5       PUBLIC        TF0
  D:008CH         PUBLIC        TH0
  D:008AH         PUBLIC        TL0
  B:00B8H.1       PUBLIC        PT0
  B:0088H.4       PUBLIC        TR0
  C:0CE3H         PUBLIC        timer0_init
  -------         PROC          TIMER0_INIT
  C:0CE3H         LINE#         6
  C:0CE3H         LINE#         7
  C:0CE3H         LINE#         8
  C:0CE6H         LINE#         9
  C:0CE9H         LINE#         10
  C:0CEBH         LINE#         11
  C:0CEDH         LINE#         12
  C:0CF0H         LINE#         13
  C:0CF3H         LINE#         14
  C:0CF5H         LINE#         15
  C:0CF7H         LINE#         16
  C:0CF9H         LINE#         17
  -------         ENDPROC       TIMER0_INIT
  -------         ENDMOD        TIMER

  -------         MODULE        UART
  C:0000H         SYMBOL        _ICE_DUMMY_
  D:00A0H         PUBLIC        P2
  B:00A8H.7       PUBLIC        EA
  C:0CCAH         PUBLIC        UART_Routine
  B:00A8H.4       PUBLIC        ES
  B:0098H.0       PUBLIC        RI
  B:0098H.1       PUBLIC        TI
  D:0099H         PUBLIC        SBUF
  D:0087H         PUBLIC        PCON
  D:0098H         PUBLIC        SCON
  D:0089H         PUBLIC        TMOD
  B:00A8H.3       PUBLIC        ET1
  C:0DB7H         PUBLIC        _uart_send
  D:008DH         PUBLIC        TH1
  D:008BH         PUBLIC        TL1
  C:0C95H         PUBLIC        uart_init
  B:0088H.6       PUBLIC        TR1
  C:0006H         PUBLIC        uart_test
  -------         PROC          UART_INIT
  C:0C95H         LINE#         5
  C:0C95H         LINE#         6
  C:0C95H         LINE#         7
  C:0C98H         LINE#         8
  C:0C9BH         LINE#         10
  C:0C9EH         LINE#         11
  C:0CA1H         LINE#         12
  C:0CA3H         LINE#         13
  C:0CA5H         LINE#         14
  C:0CA8H         LINE#         15
BL51 BANKED LINKER/LOCATER V6.22.4.0                                                  05/15/2023  01:16:12  PAGE 13


  C:0CABH         LINE#         17
  C:0CADH         LINE#         18
  C:0CAFH         LINE#         19
  -------         ENDPROC       UART_INIT
  -------         PROC          _UART_SEND
  D:0007H         SYMBOL        bt
  C:0DB7H         LINE#         22
  C:0DB7H         LINE#         23
  C:0DB7H         LINE#         24
  C:0DB9H         LINE#         25
  C:0DBCH         LINE#         26
  C:0DBEH         LINE#         27
  -------         ENDPROC       _UART_SEND
  -------         PROC          UART_TEST
  C:0006H         LINE#         30
  C:0006H         LINE#         31
  C:0006H         LINE#         32
  C:0009H         LINE#         34
  C:0009H         LINE#         35
  C:0009H         LINE#         39
  -------         ENDPROC       UART_TEST
  -------         PROC          UART_ROUTINE
  C:0CCAH         LINE#         42
  C:0CD1H         LINE#         44
  C:0CD4H         LINE#         45
  C:0CD4H         LINE#         46
  C:0CD7H         LINE#         47
  C:0CDCH         LINE#         48
  C:0CDEH         LINE#         49
  C:0CDEH         LINE#         50
  -------         ENDPROC       UART_ROUTINE
  -------         ENDMOD        UART

  -------         MODULE        DIANZHEN
  C:0000H         SYMBOL        _ICE_DUMMY_
  D:0080H         PUBLIC        P0
  D:00B0H         PUBLIC        P3
  C:0B8FH         PUBLIC        __74HC595_write
  X:003CH         PUBLIC        hello
  C:0BE8H         PUBLIC        _MatrixLED_Column
  B:00B0H.5       PUBLIC        RCK
  B:00B0H.6       PUBLIC        SCK
  B:00B0H.4       PUBLIC        SER
  C:09A1H         PUBLIC        dianzhen_test
  -------         PROC          __74HC595_WRITE
  D:0005H         SYMBOL        byte
  -------         DO            
  D:0003H         SYMBOL        i
  -------         ENDDO         
  C:0B8FH         LINE#         14
  C:0B91H         LINE#         15
  C:0B91H         LINE#         17
  C:0B93H         LINE#         18
  C:0B93H         LINE#         19
  C:0BAFH         LINE#         20
  C:0BB1H         LINE#         21
  C:0BB3H         LINE#         22
BL51 BANKED LINKER/LOCATER V6.22.4.0                                                  05/15/2023  01:16:12  PAGE 14


  C:0BB8H         LINE#         23
  C:0BBAH         LINE#         24
  C:0BBCH         LINE#         25
  -------         ENDPROC       __74HC595_WRITE
  -------         PROC          _MATRIXLED_COLUMN
  D:0002H         SYMBOL        column
  D:0004H         SYMBOL        dta
  C:0BE8H         LINE#         27
  C:0BEAH         LINE#         28
  C:0BEAH         LINE#         29
  C:0BEFH         LINE#         30
  C:0BFFH         LINE#         31
  C:0C0AH         LINE#         32
  C:0C0DH         LINE#         33
  -------         ENDPROC       _MATRIXLED_COLUMN
  -------         PROC          DIANZHEN_TEST
  -------         DO            
  X:0039H         SYMBOL        i
  X:003AH         SYMBOL        offset
  X:003BH         SYMBOL        cnt
  -------         ENDDO         
  C:09A1H         LINE#         35
  C:09A1H         LINE#         36
  C:09A1H         LINE#         37
  C:09A7H         LINE#         39
  C:09A9H         LINE#         40
  C:09ABH         LINE#         42
  C:09ABH         LINE#         43
  C:09ABH         LINE#         44
  C:09AFH         LINE#         45
  C:09AFH         LINE#         46
  C:09C2H         LINE#         47
  C:09C7H         LINE#         48
  C:09CDH         LINE#         49
  C:09CDH         LINE#         50
  C:09CFH         LINE#         51
  C:09D3H         LINE#         52
  C:09D9H         LINE#         53
  C:09D9H         LINE#         54
  C:09DBH         LINE#         55
  C:09DBH         LINE#         56
  C:09DBH         LINE#         57
  -------         ENDPROC       DIANZHEN_TEST
  -------         ENDMOD        DIANZHEN

  -------         MODULE        BEEP
  C:0000H         SYMBOL        _ICE_DUMMY_
  -------         ENDMOD        BEEP

  -------         MODULE        KEY
  C:0000H         SYMBOL        _ICE_DUMMY_
  B:00B0H.0       PUBLIC        P3_0
  B:00B0H.1       PUBLIC        P3_1
  B:00B0H.2       PUBLIC        P3_2
  B:00B0H.3       PUBLIC        P3_3
  C:079CH         PUBLIC        get_key
  -------         PROC          GET_KEY
BL51 BANKED LINKER/LOCATER V6.22.4.0                                                  05/15/2023  01:16:12  PAGE 15


  -------         DO            
  X:005CH         SYMBOL        key_num
  -------         ENDDO         
  C:079CH         LINE#         4
  C:079CH         LINE#         5
  C:079CH         LINE#         6
  C:07A0H         LINE#         8
  C:07BFH         LINE#         9
  C:07E0H         LINE#         10
  C:0801H         LINE#         11
  C:0822H         LINE#         13
  C:0826H         LINE#         14
  -------         ENDPROC       GET_KEY
  -------         ENDMOD        KEY

  -------         MODULE        AT24C02
  C:0000H         SYMBOL        _ICE_DUMMY_
  -------         ENDMOD        AT24C02

  -------         MODULE        PWM
  C:0000H         SYMBOL        _ICE_DUMMY_
  C:0AA9H         PUBLIC        Timer0_Routine
  D:0090H         PUBLIC        P1
  B:00A8H.7       PUBLIC        EA
  X:005DH         PUBLIC        speed
  C:0C6DH         PUBLIC        _Delay0
  D:0089H         PUBLIC        TMOD
  C:0CFAH         PUBLIC        timer_init
  X:005EH         PUBLIC        cmp
  X:005FH         PUBLIC        cnt
  B:00A8H.1       PUBLIC        ET0
  X:0060H         PUBLIC        key
  B:0088H.5       PUBLIC        TF0
  D:008CH         PUBLIC        TH0
  D:008AH         PUBLIC        TL0
  B:00B8H.1       PUBLIC        PT0
  B:0090H.0       PUBLIC        LED
  B:0088H.4       PUBLIC        TR0
  C:0956H         PUBLIC        dianji
  C:0DD2H         PUBLIC        pwm_test
  C:0C0EH         PUBLIC        breath
  -------         PROC          L?0033
  -------         ENDPROC       L?0033
  -------         PROC          _DELAY0
  D:0006H         SYMBOL        t
  C:0C6DH         LINE#         9
  C:0C6DH         LINE#         10
  C:0C6DH         LINE#         11
  C:0C77H         LINE#         12
  -------         ENDPROC       _DELAY0
  -------         PROC          BREATH
  -------         DO            
  D:0003H         SYMBOL        time
  D:0005H         SYMBOL        i
  -------         ENDDO         
  C:0C0EH         LINE#         14
  C:0C0EH         LINE#         15
BL51 BANKED LINKER/LOCATER V6.22.4.0                                                  05/15/2023  01:16:12  PAGE 16


  C:0C0EH         LINE#         18
  C:0C0EH         LINE#         19
  C:0C0EH         LINE#         20
  C:0C10H         LINE#         21
  C:0C10H         LINE#         22
  C:0C12H         LINE#         23
  C:0C12H         LINE#         24
  C:0C12H         LINE#         27
  C:0C12H         LINE#         28
  C:0C12H         LINE#         30
  C:0C15H         LINE#         31
  C:0C1AH         LINE#         32
  C:0C1FH         LINE#         33
  C:0C27H         LINE#         34
  C:0C27H         LINE#         35
  C:0C29H         LINE#         36
  C:0C29H         LINE#         37
  C:0C29H         LINE#         40
  C:0C29H         LINE#         41
  C:0C29H         LINE#         43
  C:0C2CH         LINE#         44
  C:0C31H         LINE#         45
  -------         ENDPROC       BREATH
  -------         PROC          TIMER_INIT
  C:0CFAH         LINE#         49
  C:0CFAH         LINE#         50
  C:0CFAH         LINE#         51
  C:0CFDH         LINE#         52
  C:0D00H         LINE#         53
  C:0D02H         LINE#         54
  C:0D04H         LINE#         55
  C:0D07H         LINE#         56
  C:0D0AH         LINE#         57
  C:0D0CH         LINE#         58
  C:0D0EH         LINE#         59
  C:0D10H         LINE#         60
  -------         ENDPROC       TIMER_INIT
  -------         PROC          DIANJI
  C:0956H         LINE#         65
  C:0956H         LINE#         66
  C:0956H         LINE#         67
  C:0959H         LINE#         68
  C:095EH         LINE#         69
  C:095EH         LINE#         70
  C:095EH         LINE#         71
  C:0965H         LINE#         72
  C:0969H         LINE#         73
  C:0969H         LINE#         74
  C:096EH         LINE#         75
  C:0972H         LINE#         76
  C:0976H         LINE#         77
  C:0981H         LINE#         78
  C:098AH         LINE#         79
  C:0993H         LINE#         80
  C:0993H         LINE#         81
  C:099FH         LINE#         82
  -------         ENDPROC       DIANJI
BL51 BANKED LINKER/LOCATER V6.22.4.0                                                  05/15/2023  01:16:12  PAGE 17


  -------         PROC          PWM_TEST
  C:0DD2H         LINE#         85
  C:0DD2H         LINE#         86
  C:0DD2H         LINE#         87
  -------         ENDPROC       PWM_TEST
  -------         PROC          TIMER0_ROUTINE
  C:0AA9H         LINE#         90
  C:0AB8H         LINE#         92
  C:0ABBH         LINE#         93
  C:0ABEH         LINE#         94
  C:0AC3H         LINE#         95
  C:0ACCH         LINE#         96
  C:0AD4H         LINE#         97
  C:0AD4H         LINE#         98
  C:0AD6H         LINE#         99
  C:0AD8H         LINE#         101
  C:0AD8H         LINE#         102
  C:0ADAH         LINE#         103
  C:0ADAH         LINE#         104
  -------         ENDPROC       TIMER0_ROUTINE
  -------         ENDMOD        PWM

  -------         MODULE        REMOTE
  C:0000H         SYMBOL        _ICE_DUMMY_
  -------         ENDMOD        REMOTE

  -------         MODULE        INTRRUPT
  C:0000H         SYMBOL        _ICE_DUMMY_
  B:00A8H.7       PUBLIC        EA
  B:0088H.1       PUBLIC        IE0
  B:00A8H.0       PUBLIC        EX0
  B:0088H.0       PUBLIC        IT0
  C:0D91H         PUBLIC        Int0_Init
  B:00B8H.0       PUBLIC        PX0
  -------         PROC          INT0_INIT
  C:0D91H         LINE#         9
  C:0D91H         LINE#         10
  C:0D91H         LINE#         11
  C:0D93H         LINE#         12
  C:0D95H         LINE#         13
  C:0D97H         LINE#         14
  C:0D99H         LINE#         15
  C:0D9BH         LINE#         16
  -------         ENDPROC       INT0_INIT
  -------         ENDMOD        INTRRUPT

  -------         MODULE        DEMO
  C:0000H         SYMBOL        _ICE_DUMMY_
  C:0D78H         PUBLIC        IR_GetRepeatFlag
  X:0061H         PUBLIC        IR_State
  D:00A0H         PUBLIC        P2
  X:0062H         PUBLIC        IR_Time
  C:0DA6H         PUBLIC        timer_getcnt
  C:0D6BH         PUBLIC        IR_GetDataFlag
  C:0D85H         PUBLIC        _timer_setcnt
  C:04DCH         PUBLIC        Int0_Routine
  D:0089H         PUBLIC        TMOD
BL51 BANKED LINKER/LOCATER V6.22.4.0                                                  05/15/2023  01:16:12  PAGE 18


  X:0064H         PUBLIC        IR_Command
  C:0D4CH         PUBLIC        timer_demo_init
  X:0065H         PUBLIC        IR_Address
  C:09E8H         PUBLIC        demo_test
  B:0088H.5       PUBLIC        TF0
  X:0066H         PUBLIC        res
  D:008CH         PUBLIC        TH0
  D:008AH         PUBLIC        TL0
  X:0068H         PUBLIC        num
  B:0088H.4       PUBLIC        TR0
  C:0DBFH         PUBLIC        _timer_run
  X:0069H         PUBLIC        IR_RepeatFlag
  C:0DCAH         PUBLIC        IR_GetCommand
  X:006AH         PUBLIC        command
  C:0DC5H         PUBLIC        IR_GetAddress
  X:006BH         PUBLIC        IR_pData
  X:006CH         PUBLIC        address
  X:006DH         PUBLIC        IR_DataFlag
  X:006EH         PUBLIC        IR_Data
  -------         PROC          TIMER_DEMO_INIT
  C:0D4CH         LINE#         23
  C:0D4CH         LINE#         24
  C:0D4CH         LINE#         25
  C:0D4FH         LINE#         26
  C:0D52H         LINE#         27
  C:0D54H         LINE#         28
  C:0D56H         LINE#         29
  C:0D59H         LINE#         30
  C:0D5BH         LINE#         31
  -------         ENDPROC       TIMER_DEMO_INIT
  -------         PROC          _TIMER_SETCNT
  D:0004H         SYMBOL        Value
  C:0D85H         LINE#         38
  C:0D89H         LINE#         39
  C:0D89H         LINE#         40
  C:0D8CH         LINE#         41
  C:0D90H         LINE#         42
  -------         ENDPROC       _TIMER_SETCNT
  -------         PROC          TIMER_GETCNT
  C:0DA6H         LINE#         49
  C:0DA6H         LINE#         50
  C:0DA6H         LINE#         51
  C:0DAEH         LINE#         52
  -------         ENDPROC       TIMER_GETCNT
  -------         PROC          _TIMER_RUN
  D:0007H         SYMBOL        Flag
  C:0DBFH         LINE#         59
  C:0DBFH         LINE#         60
  C:0DBFH         LINE#         61
  C:0DC4H         LINE#         62
  -------         ENDPROC       _TIMER_RUN
  -------         PROC          IR_GETDATAFLAG
  C:0D6BH         LINE#         69
  C:0D6BH         LINE#         70
  C:0D6BH         LINE#         71
  C:0D70H         LINE#         72
  C:0D70H         LINE#         73
BL51 BANKED LINKER/LOCATER V6.22.4.0                                                  05/15/2023  01:16:12  PAGE 19


  C:0D72H         LINE#         74
  C:0D75H         LINE#         75
  C:0D75H         LINE#         76
  C:0D77H         LINE#         77
  -------         ENDPROC       IR_GETDATAFLAG
  -------         PROC          IR_GETREPEATFLAG
  C:0D78H         LINE#         84
  C:0D78H         LINE#         85
  C:0D78H         LINE#         86
  C:0D7DH         LINE#         87
  C:0D7DH         LINE#         88
  C:0D7FH         LINE#         89
  C:0D82H         LINE#         90
  C:0D82H         LINE#         91
  C:0D84H         LINE#         92
  -------         ENDPROC       IR_GETREPEATFLAG
  -------         PROC          IR_GETADDRESS
  C:0DC5H         LINE#         99
  C:0DC5H         LINE#         100
  C:0DC5H         LINE#         101
  C:0DC9H         LINE#         102
  -------         ENDPROC       IR_GETADDRESS
  -------         PROC          IR_GETCOMMAND
  C:0DCAH         LINE#         109
  C:0DCAH         LINE#         110
  C:0DCAH         LINE#         111
  C:0DCEH         LINE#         112
  -------         ENDPROC       IR_GETCOMMAND
  -------         PROC          DEMO_TEST
  C:09E8H         LINE#         114
  C:09E8H         LINE#         115
  C:09E8H         LINE#         116
  C:09EBH         LINE#         118
  C:09EEH         LINE#         119
  C:09F1H         LINE#         122
  C:09F1H         LINE#         123
  C:09F1H         LINE#         124
  C:09F7H         LINE#         125
  C:09F7H         LINE#         126
  C:09FEH         LINE#         127
  C:0A05H         LINE#         129
  C:0A16H         LINE#         130
  C:0A27H         LINE#         131
  C:0A27H         LINE#         132
  -------         ENDPROC       DEMO_TEST
  -------         PROC          INT0_ROUTINE
  C:04DCH         LINE#         135
  C:04EFH         LINE#         137
  C:04F5H         LINE#         138
  C:04F5H         LINE#         139
  C:04F7H         LINE#         140
  C:04FCH         LINE#         141
  C:0501H         LINE#         142
  C:0501H         LINE#         143
  C:0503H         LINE#         144
  C:050BH         LINE#         145
  C:050BH         LINE#         146
BL51 BANKED LINKER/LOCATER V6.22.4.0                                                  05/15/2023  01:16:12  PAGE 20


  C:0514H         LINE#         147
  C:0519H         LINE#         149
  C:051FH         LINE#         150
  C:0535H         LINE#         151
  C:0535H         LINE#         152
  C:0538H         LINE#         154
  C:053DH         LINE#         155
  C:0540H         LINE#         156
  C:0551H         LINE#         157
  C:0551H         LINE#         158
  C:0556H         LINE#         159
  C:0556H         LINE#         160
  C:0556H         LINE#         161
  C:0559H         LINE#         163
  C:0559H         LINE#         164
  C:055EH         LINE#         165
  C:055EH         LINE#         166
  C:0561H         LINE#         167
  C:0569H         LINE#         168
  C:0569H         LINE#         169
  C:0573H         LINE#         170
  C:0579H         LINE#         171
  C:058FH         LINE#         172
  C:058FH         LINE#         173
  C:05AFH         LINE#         174
  C:05AFH         LINE#         175
  C:05B1H         LINE#         177
  C:05C8H         LINE#         178
  C:05C8H         LINE#         179
  C:05EAH         LINE#         180
  C:05EFH         LINE#         181
  C:05F1H         LINE#         183
  C:05F1H         LINE#         184
  C:05F5H         LINE#         185
  C:05F9H         LINE#         186
  C:05F9H         LINE#         188
  C:0601H         LINE#         189
  C:0601H         LINE#         190
  C:0603H         LINE#         191
  C:0619H         LINE#         192
  C:0619H         LINE#         193
  C:061DH         LINE#         194
  C:0620H         LINE#         195
  C:0625H         LINE#         196
  C:0625H         LINE#         197
  C:062AH         LINE#         198
  C:062EH         LINE#         199
  C:062EH         LINE#         200
  C:062EH         LINE#         201
  -------         ENDPROC       INT0_ROUTINE
  -------         ENDMOD        DEMO

  -------         MODULE        ?C?FPMUL
  C:0026H         PUBLIC        ?C?FPMUL
  -------         ENDMOD        ?C?FPMUL

  -------         MODULE        ?C?CASTF
BL51 BANKED LINKER/LOCATER V6.22.4.0                                                  05/15/2023  01:16:12  PAGE 21


  C:012CH         PUBLIC        ?C?CASTF
  -------         ENDMOD        ?C?CASTF

  -------         MODULE        ?C?CLDOPTR
  C:01ADH         PUBLIC        ?C?CLDOPTR
  -------         ENDMOD        ?C?CLDOPTR

  -------         MODULE        ?C?IMUL
  C:01DAH         PUBLIC        ?C?IMUL
  -------         ENDMOD        ?C?IMUL

  -------         MODULE        ?C?UIDIV
  C:01ECH         PUBLIC        ?C?UIDIV
  -------         ENDMOD        ?C?UIDIV

  -------         MODULE        ?C?SIDIV
  C:0241H         PUBLIC        ?C?SIDIV
  -------         ENDMOD        ?C?SIDIV

  -------         MODULE        ?C?LNEG
  C:0277H         PUBLIC        ?C?LNEG
  -------         ENDMOD        ?C?LNEG

  -------         MODULE        ?C?LLDIPDATA
  C:028EH         PUBLIC        ?C?LLDIPDATA
  C:0285H         PUBLIC        ?C?LLDIPDATA1
  C:0287H         PUBLIC        ?C?LLDIPDATA8
  -------         ENDMOD        ?C?LLDIPDATA

  -------         MODULE        ?C?LSTPDATA
  C:02A5H         PUBLIC        ?C?LSTPDATA
  -------         ENDMOD        ?C?LSTPDATA

Program Size: data=9.0 xdata=123 code=3541
LINK/LOCATE RUN COMPLETE.  0 WARNING(S),  0 ERROR(S)
